target datalayout = "e-m:e-p270:32:32-p271:32:32-p272:64:64-i64:64-i128:128-f80:128-n8:16:32:64-S128"
target triple = "x86_64-pc-linux-gnu"

%"class.std::__cxx11::basic_string" = type { %"struct.std::__cxx11::basic_string<char>::_Alloc_hider", i64, %union.anon }
%"struct.std::__cxx11::basic_string<char>::_Alloc_hider" = type { ptr }
%union.anon = type { i64, [8 x i8] }
%"struct.Luau::CountMismatch" = type { i64, %"class.std::optional.46", i64, i32, i8, %"class.std::__cxx11::basic_string" }
%"class.std::optional.46" = type { %"struct.std::_Optional_base.47" }
%"struct.std::_Optional_base.47" = type { %"struct.std::_Optional_payload.49" }
%"struct.std::_Optional_payload.49" = type { %"struct.std::_Optional_payload_base.base.51", [7 x i8] }
%"struct.std::_Optional_payload_base.base.51" = type <{ %"union.std::_Optional_payload_base<unsigned long>::_Storage", i8 }>
%"union.std::_Optional_payload_base<unsigned long>::_Storage" = type { i64 }
%"struct.std::_Optional_payload_base.50" = type <{ %"union.std::_Optional_payload_base<unsigned long>::_Storage", i8, [7 x i8] }>

; Function Attrs: mustprogress nounwind uwtable
define linkonce_odr dso_local noundef nonnull align 8 dereferenceable(8) ptr @_ZNKSt22_Optional_payload_baseImE6_M_getEv(ptr noundef nonnull align 8 dereferenceable(9) %0) #2 comdat align 2 {
  %2 = alloca ptr, align 8
  store ptr %0, ptr %2, align 8, !tbaa !477
  %3 = load ptr, ptr %2, align 8
  %4 = getelementptr inbounds nuw %"struct.std::_Optional_payload_base.50", ptr %3, i32 0, i32 0
  ret ptr %4
}

; Function Attrs: mustprogress nounwind uwtable
define available_externally noundef ptr @_ZNKSt7__cxx1112basic_stringIcSt11char_traitsIcESaIcEE7_M_dataEv(ptr noundef nonnull align 8 dereferenceable(32) %0) #2 align 2 {
  %2 = alloca ptr, align 8
  store ptr %0, ptr %2, align 8, !tbaa !50
  %3 = load ptr, ptr %2, align 8
  %4 = getelementptr inbounds nuw %"class.std::__cxx11::basic_string", ptr %3, i32 0, i32 0
  %5 = getelementptr inbounds nuw %"struct.std::__cxx11::basic_string<char>::_Alloc_hider", ptr %4, i32 0, i32 0
  %6 = load ptr, ptr %5, align 8, !tbaa !614
  ret ptr %6
}

; Function Attrs: mustprogress nounwind uwtable
define linkonce_odr dso_local noundef nonnull align 8 dereferenceable(8) ptr @_ZNKSt19_Optional_base_implImSt14_Optional_baseImLb1ELb1EEE6_M_getEv(ptr noundef nonnull align 1 dereferenceable(1) %0) #2 comdat align 2 {
  %2 = alloca ptr, align 8
  store ptr %0, ptr %2, align 8, !tbaa !474
  %3 = load ptr, ptr %2, align 8
  br label %4

4:                                                ; preds = %1
  br label %5

5:                                                ; preds = %4
  br label %6

6:                                                ; preds = %5
  %7 = getelementptr inbounds nuw %"struct.std::_Optional_base.47", ptr %3, i32 0, i32 0
  %8 = call noundef nonnull align 8 dereferenceable(8) ptr @_ZNKSt22_Optional_payload_baseImE6_M_getEv(ptr noundef nonnull align 8 dereferenceable(9) %7) #5
  ret ptr %8
}

; Function Attrs: mustprogress nounwind uwtable
define linkonce_odr dso_local noundef zeroext i1 @_ZNKSt19_Optional_base_implImSt14_Optional_baseImLb1ELb1EEE13_M_is_engagedEv(ptr noundef nonnull align 1 dereferenceable(1) %0) #2 comdat align 2 {
  %2 = alloca ptr, align 8
  store ptr %0, ptr %2, align 8, !tbaa !474
  %3 = load ptr, ptr %2, align 8
  %4 = getelementptr inbounds nuw %"struct.std::_Optional_base.47", ptr %3, i32 0, i32 0
  %5 = getelementptr inbounds nuw %"struct.std::_Optional_payload_base.50", ptr %4, i32 0, i32 1
  %6 = load i8, ptr %5, align 8, !tbaa !476, !range !17, !noundef !18
  %7 = trunc i8 %6 to i1
  ret i1 %7
}

; Function Attrs: mustprogress nounwind uwtable
define linkonce_odr dso_local noundef i32 @_ZNSt11char_traitsIcE7compareEPKcS2_m(ptr noundef %0, ptr noundef %1, i64 noundef %2) #2 comdat align 2 {
  %4 = alloca i32, align 4
  %5 = alloca ptr, align 8
  %6 = alloca ptr, align 8
  %7 = alloca i64, align 8
  store ptr %0, ptr %5, align 8, !tbaa !11
  store ptr %1, ptr %6, align 8, !tbaa !11
  store i64 %2, ptr %7, align 8, !tbaa !36
  %8 = load i64, ptr %7, align 8, !tbaa !36
  %9 = icmp eq i64 %8, 0
  br i1 %9, label %10, label %11

10:                                               ; preds = %3
  store i32 0, ptr %4, align 4
  br label %16

11:                                               ; preds = %3
  %12 = load ptr, ptr %5, align 8, !tbaa !11
  %13 = load ptr, ptr %6, align 8, !tbaa !11
  %14 = load i64, ptr %7, align 8, !tbaa !36
  %15 = call i32 @memcmp(ptr noundef %12, ptr noundef %13, i64 noundef %14) #5
  store i32 %15, ptr %4, align 4
  br label %16

16:                                               ; preds = %11, %10
  %17 = load i32, ptr %4, align 4
  ret i32 %17
}

; Function Attrs: mustprogress nounwind uwtable
define available_externally noundef ptr @_ZNKSt7__cxx1112basic_stringIcSt11char_traitsIcESaIcEE4dataEv(ptr noundef nonnull align 8 dereferenceable(32) %0) #2 align 2 {
  %2 = alloca ptr, align 8
  store ptr %0, ptr %2, align 8, !tbaa !50
  %3 = load ptr, ptr %2, align 8
  %4 = call noundef ptr @_ZNKSt7__cxx1112basic_stringIcSt11char_traitsIcESaIcEE7_M_dataEv(ptr noundef nonnull align 8 dereferenceable(32) %3)
  ret ptr %4
}

; Function Attrs: mustprogress nounwind uwtable
define available_externally noundef i64 @_ZNKSt7__cxx1112basic_stringIcSt11char_traitsIcESaIcEE4sizeEv(ptr noundef nonnull align 8 dereferenceable(32) %0) #2 align 2 {
  %2 = alloca ptr, align 8
  store ptr %0, ptr %2, align 8, !tbaa !50
  %3 = load ptr, ptr %2, align 8
  %4 = getelementptr inbounds nuw %"class.std::__cxx11::basic_string", ptr %3, i32 0, i32 1
  %5 = load i64, ptr %4, align 8, !tbaa !613
  ret i64 %5
}

; Function Attrs: mustprogress nounwind uwtable
define linkonce_odr dso_local noundef nonnull align 8 dereferenceable(8) ptr @_ZNKRSt8optionalImEdeEv(ptr noundef nonnull align 8 dereferenceable(16) %0) #2 comdat align 2 {
  %2 = alloca ptr, align 8
  store ptr %0, ptr %2, align 8, !tbaa !130
  %3 = load ptr, ptr %2, align 8
  %4 = call noundef nonnull align 8 dereferenceable(8) ptr @_ZNKSt19_Optional_base_implImSt14_Optional_baseImLb1ELb1EEE6_M_getEv(ptr noundef nonnull align 1 dereferenceable(1) %3) #5
  ret ptr %4
}

; Function Attrs: mustprogress nounwind uwtable
define linkonce_odr dso_local noundef zeroext i1 @_ZNKSt8optionalImEcvbEv(ptr noundef nonnull align 8 dereferenceable(16) %0) #2 comdat align 2 {
  %2 = alloca ptr, align 8
  store ptr %0, ptr %2, align 8, !tbaa !130
  %3 = load ptr, ptr %2, align 8
  %4 = call noundef zeroext i1 @_ZNKSt19_Optional_base_implImSt14_Optional_baseImLb1ELb1EEE13_M_is_engagedEv(ptr noundef nonnull align 1 dereferenceable(1) %3) #5
  ret i1 %4
}

; Function Attrs: inlinehint mustprogress nounwind uwtable
define linkonce_odr dso_local noundef zeroext i1 @_ZSteqIcEN9__gnu_cxx11__enable_ifIXsr9__is_charIT_EE7__valueEbE6__typeERKNSt7__cxx1112basic_stringIS2_St11char_traitsIS2_ESaIS2_EEESC_(ptr noundef nonnull align 8 dereferenceable(32) %0, ptr noundef nonnull align 8 dereferenceable(32) %1) #4 comdat {
  %3 = alloca ptr, align 8
  %4 = alloca ptr, align 8
  store ptr %0, ptr %3, align 8, !tbaa !50
  store ptr %1, ptr %4, align 8, !tbaa !50
  %5 = load ptr, ptr %3, align 8, !tbaa !50
  %6 = call noundef i64 @_ZNKSt7__cxx1112basic_stringIcSt11char_traitsIcESaIcEE4sizeEv(ptr noundef nonnull align 8 dereferenceable(32) %5) #5
  %7 = load ptr, ptr %4, align 8, !tbaa !50
  %8 = call noundef i64 @_ZNKSt7__cxx1112basic_stringIcSt11char_traitsIcESaIcEE4sizeEv(ptr noundef nonnull align 8 dereferenceable(32) %7) #5
  %9 = icmp eq i64 %6, %8
  br i1 %9, label %10, label %20

10:                                               ; preds = %2
  %11 = load ptr, ptr %3, align 8, !tbaa !50
  %12 = call noundef ptr @_ZNKSt7__cxx1112basic_stringIcSt11char_traitsIcESaIcEE4dataEv(ptr noundef nonnull align 8 dereferenceable(32) %11) #5
  %13 = load ptr, ptr %4, align 8, !tbaa !50
  %14 = call noundef ptr @_ZNKSt7__cxx1112basic_stringIcSt11char_traitsIcESaIcEE4dataEv(ptr noundef nonnull align 8 dereferenceable(32) %13) #5
  %15 = load ptr, ptr %3, align 8, !tbaa !50
  %16 = call noundef i64 @_ZNKSt7__cxx1112basic_stringIcSt11char_traitsIcESaIcEE4sizeEv(ptr noundef nonnull align 8 dereferenceable(32) %15) #5
  %17 = call noundef i32 @_ZNSt11char_traitsIcE7compareEPKcS2_m(ptr noundef %12, ptr noundef %14, i64 noundef %16)
  %18 = icmp ne i32 %17, 0
  %19 = xor i1 %18, true
  br label %20

20:                                               ; preds = %10, %2
  %21 = phi i1 [ false, %2 ], [ %19, %10 ]
  ret i1 %21
}

; Function Attrs: mustprogress nounwind uwtable
define linkonce_odr dso_local noundef zeroext i1 @_ZSteqImmENSt9enable_ifIXsr14is_convertibleIDTeqclsr3stdE7declvalIRKT_EEclsr3stdE7declvalIRKT0_EEEbEE5valueEbE4typeERKSt8optionalIS1_ERKSA_IS4_E(ptr noundef nonnull align 8 dereferenceable(16) %0, ptr noundef nonnull align 8 dereferenceable(16) %1) #2 comdat {
  %3 = alloca ptr, align 8
  %4 = alloca ptr, align 8
  store ptr %0, ptr %3, align 8, !tbaa !130
  store ptr %1, ptr %4, align 8, !tbaa !130
  %5 = load ptr, ptr %3, align 8, !tbaa !130
  %6 = call noundef zeroext i1 @_ZNKSt8optionalImEcvbEv(ptr noundef nonnull align 8 dereferenceable(16) %5) #5
  %7 = zext i1 %6 to i32
  %8 = load ptr, ptr %4, align 8, !tbaa !130
  %9 = call noundef zeroext i1 @_ZNKSt8optionalImEcvbEv(ptr noundef nonnull align 8 dereferenceable(16) %8) #5
  %10 = zext i1 %9 to i32
  %11 = icmp eq i32 %7, %10
  br i1 %11, label %12, label %25

12:                                               ; preds = %2
  %13 = load ptr, ptr %3, align 8, !tbaa !130
  %14 = call noundef zeroext i1 @_ZNKSt8optionalImEcvbEv(ptr noundef nonnull align 8 dereferenceable(16) %13) #5
  br i1 %14, label %15, label %23

15:                                               ; preds = %12
  %16 = load ptr, ptr %3, align 8, !tbaa !130
  %17 = call noundef nonnull align 8 dereferenceable(8) ptr @_ZNKRSt8optionalImEdeEv(ptr noundef nonnull align 8 dereferenceable(16) %16) #5
  %18 = load i64, ptr %17, align 8, !tbaa !36
  %19 = load ptr, ptr %4, align 8, !tbaa !130
  %20 = call noundef nonnull align 8 dereferenceable(8) ptr @_ZNKRSt8optionalImEdeEv(ptr noundef nonnull align 8 dereferenceable(16) %19) #5
  %21 = load i64, ptr %20, align 8, !tbaa !36
  %22 = icmp eq i64 %18, %21
  br label %23

23:                                               ; preds = %15, %12
  %24 = phi i1 [ true, %12 ], [ %22, %15 ]
  br label %25

25:                                               ; preds = %23, %2
  %26 = phi i1 [ false, %2 ], [ %24, %23 ]
  ret i1 %26
}

; Function Attrs: mustprogress uwtable
define dso_local noundef zeroext i1 @_ZNK4Luau13CountMismatcheqERKS0_(ptr noundef nonnull align 8 dereferenceable(72) %0, ptr noundef nonnull align 8 dereferenceable(72) %1) #3 align 2 {
  %3 = alloca ptr, align 8
  %4 = alloca ptr, align 8
  store ptr %0, ptr %3, align 8, !tbaa !119
  store ptr %1, ptr %4, align 8, !tbaa !119
  %5 = load ptr, ptr %3, align 8
  %6 = getelementptr inbounds nuw %"struct.Luau::CountMismatch", ptr %5, i32 0, i32 0
  %7 = load i64, ptr %6, align 8, !tbaa !121
  %8 = load ptr, ptr %4, align 8, !tbaa !119
  %9 = getelementptr inbounds nuw %"struct.Luau::CountMismatch", ptr %8, i32 0, i32 0
  %10 = load i64, ptr %9, align 8, !tbaa !121
  %11 = icmp eq i64 %7, %10
  br i1 %11, label %12, label %36

12:                                               ; preds = %2
  %13 = getelementptr inbounds nuw %"struct.Luau::CountMismatch", ptr %5, i32 0, i32 1
  %14 = load ptr, ptr %4, align 8, !tbaa !119
  %15 = getelementptr inbounds nuw %"struct.Luau::CountMismatch", ptr %14, i32 0, i32 1
  %16 = call noundef zeroext i1 @_ZSteqImmENSt9enable_ifIXsr14is_convertibleIDTeqclsr3stdE7declvalIRKT_EEclsr3stdE7declvalIRKT0_EEEbEE5valueEbE4typeERKSt8optionalIS1_ERKSA_IS4_E(ptr noundef nonnull align 8 dereferenceable(16) %13, ptr noundef nonnull align 8 dereferenceable(16) %15)
  br i1 %16, label %17, label %36

17:                                               ; preds = %12
  %18 = getelementptr inbounds nuw %"struct.Luau::CountMismatch", ptr %5, i32 0, i32 2
  %19 = load i64, ptr %18, align 8, !tbaa !128
  %20 = load ptr, ptr %4, align 8, !tbaa !119
  %21 = getelementptr inbounds nuw %"struct.Luau::CountMismatch", ptr %20, i32 0, i32 2
  %22 = load i64, ptr %21, align 8, !tbaa !128
  %23 = icmp eq i64 %19, %22
  br i1 %23, label %24, label %36

24:                                               ; preds = %17
  %25 = getelementptr inbounds nuw %"struct.Luau::CountMismatch", ptr %5, i32 0, i32 3
  %26 = load i32, ptr %25, align 8, !tbaa !129
  %27 = load ptr, ptr %4, align 8, !tbaa !119
  %28 = getelementptr inbounds nuw %"struct.Luau::CountMismatch", ptr %27, i32 0, i32 3
  %29 = load i32, ptr %28, align 8, !tbaa !129
  %30 = icmp eq i32 %26, %29
  br i1 %30, label %31, label %36

31:                                               ; preds = %24
  %32 = getelementptr inbounds nuw %"struct.Luau::CountMismatch", ptr %5, i32 0, i32 5
  %33 = load ptr, ptr %4, align 8, !tbaa !119
  %34 = getelementptr inbounds nuw %"struct.Luau::CountMismatch", ptr %33, i32 0, i32 5
  %35 = call noundef zeroext i1 @_ZSteqIcEN9__gnu_cxx11__enable_ifIXsr9__is_charIT_EE7__valueEbE6__typeERKNSt7__cxx1112basic_stringIS2_St11char_traitsIS2_ESaIS2_EEESC_(ptr noundef nonnull align 8 dereferenceable(32) %32, ptr noundef nonnull align 8 dereferenceable(32) %34) #5
  br label %36

36:                                               ; preds = %31, %24, %17, %12, %2
  %37 = phi i1 [ false, %24 ], [ false, %17 ], [ false, %12 ], [ false, %2 ], [ %35, %31 ]
  ret i1 %37
}