; Function Attrs: mustprogress nofree nounwind willreturn memory(read, inaccessiblemem: none) uwtable
define dso_local noundef zeroext i1 @_ZNK4Luau13CountMismatcheqERKS0_(ptr noundef nonnull readonly align 8 captures(none) dereferenceable(72) %0, ptr noundef nonnull readonly align 8 captures(none) dereferenceable(72) %1) local_unnamed_addr #7 align 2 {
  %3 = load i64, ptr %0, align 8, !tbaa !88
  %4 = load i64, ptr %1, align 8, !tbaa !88
  %5 = icmp eq i64 %3, %4
  br i1 %5, label %6, label %_ZSteqIcEN9__gnu_cxx11__enable_ifIXsr9__is_charIT_EE7__valueEbE6__typeERKNSt7__cxx1112basic_stringIS2_St11char_traitsIS2_ESaIS2_EEESC_.exit

6:                                                ; preds = %2
  %7 = getelementptr inbounds nuw i8, ptr %0, i64 16
  %8 = load i8, ptr %7, align 8, !tbaa !95, !range !50, !noundef !51
  %9 = trunc nuw i8 %8 to i1
  %10 = getelementptr inbounds nuw i8, ptr %1, i64 16
  %11 = load i8, ptr %10, align 8, !tbaa !95, !range !50, !noundef !51
  %12 = icmp eq i8 %8, %11
  %brmerge.not.i = and i1 %12, %9
  br i1 %brmerge.not.i, label %13, label %_ZSteqImmENSt9enable_ifIXsr14is_convertibleIDTeqclsr3stdE7declvalIRKT_EEclsr3stdE7declvalIRKT0_EEEbEE5valueEbE4typeERKSt8optionalIS1_ERKSA_IS4_E.exit

13:                                               ; preds = %6
  %14 = getelementptr inbounds nuw i8, ptr %1, i64 8
  %15 = getelementptr inbounds nuw i8, ptr %0, i64 8
  %16 = load i64, ptr %15, align 8, !tbaa !46
  %17 = load i64, ptr %14, align 8, !tbaa !46
  %18 = icmp eq i64 %16, %17
  br i1 %18, label %19, label %_ZSteqIcEN9__gnu_cxx11__enable_ifIXsr9__is_charIT_EE7__valueEbE6__typeERKNSt7__cxx1112basic_stringIS2_St11char_traitsIS2_ESaIS2_EEESC_.exit

_ZSteqImmENSt9enable_ifIXsr14is_convertibleIDTeqclsr3stdE7declvalIRKT_EEclsr3stdE7declvalIRKT0_EEEbEE5valueEbE4typeERKSt8optionalIS1_ERKSA_IS4_E.exit: ; preds = %6
  br i1 %12, label %19, label %_ZSteqIcEN9__gnu_cxx11__enable_ifIXsr9__is_charIT_EE7__valueEbE6__typeERKNSt7__cxx1112basic_stringIS2_St11char_traitsIS2_ESaIS2_EEESC_.exit

19:                                               ; preds = %13, %_ZSteqImmENSt9enable_ifIXsr14is_convertibleIDTeqclsr3stdE7declvalIRKT_EEclsr3stdE7declvalIRKT0_EEEbEE5valueEbE4typeERKSt8optionalIS1_ERKSA_IS4_E.exit
  %20 = getelementptr inbounds nuw i8, ptr %0, i64 24
  %21 = load i64, ptr %20, align 8, !tbaa !96
  %22 = getelementptr inbounds nuw i8, ptr %1, i64 24
  %23 = load i64, ptr %22, align 8, !tbaa !96
  %24 = icmp eq i64 %21, %23
  br i1 %24, label %25, label %_ZSteqIcEN9__gnu_cxx11__enable_ifIXsr9__is_charIT_EE7__valueEbE6__typeERKNSt7__cxx1112basic_stringIS2_St11char_traitsIS2_ESaIS2_EEESC_.exit

25:                                               ; preds = %19
  %26 = getelementptr inbounds nuw i8, ptr %0, i64 32
  %27 = load i32, ptr %26, align 8, !tbaa !97
  %28 = getelementptr inbounds nuw i8, ptr %1, i64 32
  %29 = load i32, ptr %28, align 8, !tbaa !97
  %30 = icmp eq i32 %27, %29
  br i1 %30, label %31, label %_ZSteqIcEN9__gnu_cxx11__enable_ifIXsr9__is_charIT_EE7__valueEbE6__typeERKNSt7__cxx1112basic_stringIS2_St11char_traitsIS2_ESaIS2_EEESC_.exit

31:                                               ; preds = %25
  %32 = getelementptr inbounds nuw i8, ptr %0, i64 40
  %33 = getelementptr inbounds nuw i8, ptr %1, i64 40
  %34 = getelementptr inbounds nuw i8, ptr %0, i64 48
  %35 = load i64, ptr %34, align 8, !tbaa !23
  %36 = getelementptr inbounds nuw i8, ptr %1, i64 48
  %37 = load i64, ptr %36, align 8, !tbaa !23
  %38 = icmp eq i64 %35, %37
  br i1 %38, label %39, label %_ZSteqIcEN9__gnu_cxx11__enable_ifIXsr9__is_charIT_EE7__valueEbE6__typeERKNSt7__cxx1112basic_stringIS2_St11char_traitsIS2_ESaIS2_EEESC_.exit

39:                                               ; preds = %31
  %40 = icmp eq i64 %35, 0
  br i1 %40, label %_ZSteqIcEN9__gnu_cxx11__enable_ifIXsr9__is_charIT_EE7__valueEbE6__typeERKNSt7__cxx1112basic_stringIS2_St11char_traitsIS2_ESaIS2_EEESC_.exit, label %41

41:                                               ; preds = %39
  %42 = load ptr, ptr %33, align 8, !tbaa !19
  %43 = load ptr, ptr %32, align 8, !tbaa !19
  %bcmp.i = tail call i32 @bcmp(ptr %43, ptr %42, i64 %35)
  %44 = icmp eq i32 %bcmp.i, 0
  br label %_ZSteqIcEN9__gnu_cxx11__enable_ifIXsr9__is_charIT_EE7__valueEbE6__typeERKNSt7__cxx1112basic_stringIS2_St11char_traitsIS2_ESaIS2_EEESC_.exit

_ZSteqIcEN9__gnu_cxx11__enable_ifIXsr9__is_charIT_EE7__valueEbE6__typeERKNSt7__cxx1112basic_stringIS2_St11char_traitsIS2_ESaIS2_EEESC_.exit: ; preds = %41, %39, %31, %13, %25, %19, %_ZSteqImmENSt9enable_ifIXsr14is_convertibleIDTeqclsr3stdE7declvalIRKT_EEclsr3stdE7declvalIRKT0_EEEbEE5valueEbE4typeERKSt8optionalIS1_ERKSA_IS4_E.exit, %2
  %45 = phi i1 [ false, %25 ], [ false, %19 ], [ false, %_ZSteqImmENSt9enable_ifIXsr14is_convertibleIDTeqclsr3stdE7declvalIRKT_EEclsr3stdE7declvalIRKT0_EEEbEE5valueEbE4typeERKSt8optionalIS1_ERKSA_IS4_E.exit ], [ false, %2 ], [ false, %13 ], [ false, %31 ], [ %44, %41 ], [ true, %39 ]
  ret i1 %45
}